; Function Attrs: mustprogress uwtable
define dso_local noundef zeroext i1 @_ZN4Luau8Unifier25unifyEPKNS_4TypeEPKNS_9UnionTypeE(ptr noundef nonnull align 8 dereferenceable(336) %0, ptr noundef %1, ptr noundef readonly captures(none) %2) local_unnamed_addr #4 align 2 {
  %4 = load ptr, ptr %2, align 8, !tbaa !112
  %5 = getelementptr inbounds nuw i8, ptr %2, i64 8
  %6 = load ptr, ptr %5, align 8, !tbaa !112
  %.not12 = icmp eq ptr %4, %6
  br i1 %.not12, label %._crit_edge, label %.lr.ph

._crit_edge.loopexit:                             ; preds = %15
  %7 = trunc nuw i8 %.1 to i1
  br label %._crit_edge

._crit_edge:                                      ; preds = %._crit_edge.loopexit, %3
  %.0.lcssa = phi i1 [ true, %3 ], [ %7, %._crit_edge.loopexit ]
  ret i1 %.0.lcssa

.lr.ph:                                           ; preds = %3, %15
  %.014 = phi i8 [ %.1, %15 ], [ 1, %3 ]
  %.sroa.09.013 = phi ptr [ %16, %15 ], [ %4, %3 ]
  %8 = load ptr, ptr %.sroa.09.013, align 8, !tbaa !77
  %9 = tail call fastcc noundef zeroext i1 @_ZN4LuauL13areCompatibleEPKNS_4TypeES2_(ptr noundef %1, ptr noundef %8)
  br i1 %9, label %10, label %15

10:                                               ; preds = %.lr.ph
  %11 = tail call noundef zeroext i1 @_ZN4Luau8Unifier25unifyEPKNS_4TypeES3_(ptr noundef nonnull align 8 dereferenceable(336) %0, ptr noundef %1, ptr noundef %8)
  %12 = icmp ne i8 %.014, 0
  %13 = select i1 %11, i1 %12, i1 false
  %14 = zext i1 %13 to i8
  br label %15

15:                                               ; preds = %10, %.lr.ph
  %.1 = phi i8 [ %14, %10 ], [ %.014, %.lr.ph ]
  %16 = getelementptr inbounds nuw i8, ptr %.sroa.09.013, i64 8
  %.not = icmp eq ptr %16, %6
  br i1 %.not, label %._crit_edge.loopexit, label %.lr.ph
}